(dp0
S'metrics'
p1
(dp2
S'bic'
p3
cnumpy.core.multiarray
scalar
p4
(cnumpy
dtype
p5
(S'f8'
p6
I0
I1
tp7
Rp8
(I3
S'<'
p9
NNNI-1
I-1
I0
tp10
bS']\xd8\xc7\x89pa5@'
p11
tp12
Rp13
sS'aic'
p14
g4
(g8
S'\x04_::3\xad9@'
p15
tp16
Rp17
ssS'weights'
p18
ccopy_reg
_reconstructor
p19
(cpandas.core.frame
DataFrame
p20
c__builtin__
object
p21
Ntp22
Rp23
g19
(cpandas.core.internals
BlockManager
p24
g21
Ntp25
Rp26
((lp27
cpandas.core.index
_new_Index
p28
(cpandas.core.index
Index
p29
(dp30
S'data'
p31
cnumpy.core.multiarray
_reconstruct
p32
(cnumpy
ndarray
p33
(I0
tp34
S'b'
p35
tp36
Rp37
(I1
(I3
tp38
g5
(S'O8'
p39
I0
I1
tp40
Rp41
(I3
S'|'
p42
NNNI-1
I-1
I63
tp43
bI00
(lp44
S'A'
p45
aS'stdA'
p46
aS'freq'
p47
atp48
bsS'name'
p49
Nstp50
Rp51
ag28
(cpandas.core.index
Int64Index
p52
(dp53
g31
g32
(g33
(I0
tp54
g35
tp55
Rp56
(I1
(I1
tp57
g5
(S'i8'
p58
I0
I1
tp59
Rp60
(I3
S'<'
p61
NNNI-1
I-1
I0
tp62
bI00
S'\x06\x00\x00\x00\x00\x00\x00\x00'
p63
tp64
bsg49
Nstp65
Rp66
a(lp67
g32
(g33
(I0
tp68
g35
tp69
Rp70
(I1
(I3
I1
tp71
g8
I00
S'\x86?\x1d\xe3_7U@K~\xd3\xe3\x85\xa1P@\x919\xf4?\xe8>\x8b@'
p72
tp73
ba(lp74
g28
(g29
(dp75
g31
g32
(g33
(I0
tp76
g35
tp77
Rp78
(I1
(I3
tp79
g41
I00
(lp80
g45
ag46
ag47
atp81
bsg49
Nstp82
Rp83
a(dp84
S'0.14.1'
p85
(dp86
S'axes'
p87
g27
sS'blocks'
p88
(lp89
(dp90
S'mgr_locs'
p91
c__builtin__
slice
p92
(I0
I3
I1
tp93
Rp94
sS'values'
p95
g70
sasstp96
bbsS'parameters'
p97
g19
(g20
g21
Ntp98
Rp99
g19
(g24
g21
Ntp100
Rp101
((lp102
g28
(g29
(dp103
g31
g32
(g33
(I0
tp104
g35
tp105
Rp106
(I1
(I7
tp107
g41
I00
(lp108
g47
aS'obs_bias_0'
p109
aS'obs_bias_1'
p110
aS'obs_bias_2'
p111
aS'obs_bias_3'
p112
aS'pw0'
p113
aS'pw1'
p114
atp115
bsg49
Nstp116
Rp117
ag28
(g52
(dp118
g31
g32
(g33
(I0
tp119
g35
tp120
Rp121
(I1
(I1
tp122
g60
I00
S'\x06\x00\x00\x00\x00\x00\x00\x00'
p123
tp124
bsg49
Nstp125
Rp126
a(lp127
g32
(g33
(I0
tp128
g35
tp129
Rp130
(I1
(I7
I1
tp131
g8
I00
S'\x919\xf4?\xe8>\x8b@\t\x91P\xd1\x02\xf9Z@\xae\xdfx6a$\xd5?\xadG\xc6\xf0\xe2\x15\x9d?\x8c\x92L\x9e\xe9\xe3\xc2\xbf\x86?\x1d\xe3_7U@K~\xd3\xe3\x85\xa1P@'
p132
tp133
ba(lp134
g28
(g29
(dp135
g31
g32
(g33
(I0
tp136
g35
tp137
Rp138
(I1
(I7
tp139
g41
I00
(lp140
g47
ag109
ag110
ag111
ag112
ag113
ag114
atp141
bsg49
Nstp142
Rp143
a(dp144
g85
(dp145
g87
g102
sg88
(lp146
(dp147
g91
g92
(I0
I7
I1
tp148
Rp149
sg95
g130
sasstp150
bbs.